target datalayout = "e-m:e-p270:32:32-p271:32:32-p272:64:64-i64:64-i128:128-f80:128-n8:16:32:64-S128"
target triple = "x86_64-unknown-linux-gnu"

%class.b3Vector3 = type { %union.anon }
%union.anon = type { [4 x float] }
%struct.anon = type { float, float, float, float }

; Function Attrs: mustprogress nounwind uwtable
define linkonce_odr dso_local noundef float @_ZSt4sqrtf(float noundef %__x) #1 comdat {
entry:
  %__x.addr = alloca float, align 4
  store float %__x, ptr %__x.addr, align 4
  %0 = load float, ptr %__x.addr, align 4
  %call = call float @sqrtf(float noundef %0) #12
  ret float %call
}

; Function Attrs: mustprogress nounwind uwtable
define linkonce_odr dso_local noundef float @_Z6b3Fabsf(float noundef %x) #1 comdat {
entry:
  %x.addr = alloca float, align 4
  store float %x, ptr %x.addr, align 4
  %0 = load float, ptr %x.addr, align 4
  %1 = call float @llvm.fabs.f32(float %0)
  ret float %1
}

; Function Attrs: mustprogress uwtable
define dso_local void @_Z13b3PlaneSpace1RK9b3Vector3PS_S2_(ptr noundef nonnull align 16 dereferenceable(16) %n, ptr noundef %p, ptr noundef %q) #0 {
entry:
  %n.addr = alloca ptr, align 8
  %p.addr = alloca ptr, align 8
  %q.addr = alloca ptr, align 8
  %a = alloca float, align 4
  %k = alloca float, align 4
  %a29 = alloca float, align 4
  %k36 = alloca float, align 4
  store ptr %n, ptr %n.addr, align 8
  store ptr %p, ptr %p.addr, align 8
  store ptr %q, ptr %q.addr, align 8
  %0 = load ptr, ptr %n.addr, align 8
  %1 = getelementptr inbounds %class.b3Vector3, ptr %0, i32 0, i32 0
  %z = getelementptr inbounds %struct.anon, ptr %1, i32 0, i32 2
  %2 = load float, ptr %z, align 8
  %call = call noundef float @_Z6b3Fabsf(float noundef %2)
  %cmp = fcmp ogt float %call, 0x3FE6A09E60000000
  br i1 %cmp, label %if.then, label %if.else

if.then:                                          ; preds = %entry
  %3 = load ptr, ptr %n.addr, align 8
  %4 = getelementptr inbounds %class.b3Vector3, ptr %3, i32 0, i32 0
  %y = getelementptr inbounds %struct.anon, ptr %4, i32 0, i32 1
  %5 = load float, ptr %y, align 4
  %6 = load ptr, ptr %n.addr, align 8
  %7 = getelementptr inbounds %class.b3Vector3, ptr %6, i32 0, i32 0
  %y1 = getelementptr inbounds %struct.anon, ptr %7, i32 0, i32 1
  %8 = load float, ptr %y1, align 4
  %9 = load ptr, ptr %n.addr, align 8
  %10 = getelementptr inbounds %class.b3Vector3, ptr %9, i32 0, i32 0
  %z2 = getelementptr inbounds %struct.anon, ptr %10, i32 0, i32 2
  %11 = load float, ptr %z2, align 8
  %12 = load ptr, ptr %n.addr, align 8
  %13 = getelementptr inbounds %class.b3Vector3, ptr %12, i32 0, i32 0
  %z3 = getelementptr inbounds %struct.anon, ptr %13, i32 0, i32 2
  %14 = load float, ptr %z3, align 8
  %mul4 = fmul float %11, %14
  %15 = call float @llvm.fmuladd.f32(float %5, float %8, float %mul4)
  store float %15, ptr %a, align 4
  %16 = load float, ptr %a, align 4
  %call5 = call noundef float @_ZSt4sqrtf(float noundef %16)
  %div = fdiv float 1.000000e+00, %call5
  store float %div, ptr %k, align 4
  %17 = load ptr, ptr %p.addr, align 8
  %arrayidx = getelementptr inbounds %class.b3Vector3, ptr %17, i64 0
  %18 = getelementptr inbounds %class.b3Vector3, ptr %arrayidx, i32 0, i32 0
  %x = getelementptr inbounds %struct.anon, ptr %18, i32 0, i32 0
  store float 0.000000e+00, ptr %x, align 16
  %19 = load ptr, ptr %n.addr, align 8
  %20 = getelementptr inbounds %class.b3Vector3, ptr %19, i32 0, i32 0
  %z6 = getelementptr inbounds %struct.anon, ptr %20, i32 0, i32 2
  %21 = load float, ptr %z6, align 8
  %fneg = fneg float %21
  %22 = load float, ptr %k, align 4
  %mul = fmul float %fneg, %22
  %23 = load ptr, ptr %p.addr, align 8
  %arrayidx7 = getelementptr inbounds %class.b3Vector3, ptr %23, i64 0
  %24 = getelementptr inbounds %class.b3Vector3, ptr %arrayidx7, i32 0, i32 0
  %y8 = getelementptr inbounds %struct.anon, ptr %24, i32 0, i32 1
  store float %mul, ptr %y8, align 4
  %25 = load ptr, ptr %n.addr, align 8
  %26 = getelementptr inbounds %class.b3Vector3, ptr %25, i32 0, i32 0
  %y9 = getelementptr inbounds %struct.anon, ptr %26, i32 0, i32 1
  %27 = load float, ptr %y9, align 4
  %28 = load float, ptr %k, align 4
  %mul10 = fmul float %27, %28
  %29 = load ptr, ptr %p.addr, align 8
  %arrayidx11 = getelementptr inbounds %class.b3Vector3, ptr %29, i64 0
  %30 = getelementptr inbounds %class.b3Vector3, ptr %arrayidx11, i32 0, i32 0
  %z12 = getelementptr inbounds %struct.anon, ptr %30, i32 0, i32 2
  store float %mul10, ptr %z12, align 8
  %31 = load float, ptr %a, align 4
  %32 = load float, ptr %k, align 4
  %mul13 = fmul float %31, %32
  %33 = load ptr, ptr %q.addr, align 8
  %arrayidx14 = getelementptr inbounds %class.b3Vector3, ptr %33, i64 0
  %34 = getelementptr inbounds %class.b3Vector3, ptr %arrayidx14, i32 0, i32 0
  %x15 = getelementptr inbounds %struct.anon, ptr %34, i32 0, i32 0
  store float %mul13, ptr %x15, align 16
  %35 = load ptr, ptr %n.addr, align 8
  %36 = getelementptr inbounds %class.b3Vector3, ptr %35, i32 0, i32 0
  %x16 = getelementptr inbounds %struct.anon, ptr %36, i32 0, i32 0
  %37 = load float, ptr %x16, align 16
  %fneg17 = fneg float %37
  %38 = load ptr, ptr %p.addr, align 8
  %arrayidx18 = getelementptr inbounds %class.b3Vector3, ptr %38, i64 0
  %39 = getelementptr inbounds %class.b3Vector3, ptr %arrayidx18, i32 0, i32 0
  %z19 = getelementptr inbounds %struct.anon, ptr %39, i32 0, i32 2
  %40 = load float, ptr %z19, align 8
  %mul20 = fmul float %fneg17, %40
  %41 = load ptr, ptr %q.addr, align 8
  %arrayidx21 = getelementptr inbounds %class.b3Vector3, ptr %41, i64 0
  %42 = getelementptr inbounds %class.b3Vector3, ptr %arrayidx21, i32 0, i32 0
  %y22 = getelementptr inbounds %struct.anon, ptr %42, i32 0, i32 1
  store float %mul20, ptr %y22, align 4
  %43 = load ptr, ptr %n.addr, align 8
  %44 = getelementptr inbounds %class.b3Vector3, ptr %43, i32 0, i32 0
  %x23 = getelementptr inbounds %struct.anon, ptr %44, i32 0, i32 0
  %45 = load float, ptr %x23, align 16
  %46 = load ptr, ptr %p.addr, align 8
  %arrayidx24 = getelementptr inbounds %class.b3Vector3, ptr %46, i64 0
  %47 = getelementptr inbounds %class.b3Vector3, ptr %arrayidx24, i32 0, i32 0
  %y25 = getelementptr inbounds %struct.anon, ptr %47, i32 0, i32 1
  %48 = load float, ptr %y25, align 4
  %mul26 = fmul float %45, %48
  %49 = load ptr, ptr %q.addr, align 8
  %arrayidx27 = getelementptr inbounds %class.b3Vector3, ptr %49, i64 0
  %50 = getelementptr inbounds %class.b3Vector3, ptr %arrayidx27, i32 0, i32 0
  %z28 = getelementptr inbounds %struct.anon, ptr %50, i32 0, i32 2
  store float %mul26, ptr %z28, align 8
  br label %if.end

if.else:                                          ; preds = %entry
  %51 = load ptr, ptr %n.addr, align 8
  %52 = getelementptr inbounds %class.b3Vector3, ptr %51, i32 0, i32 0
  %x30 = getelementptr inbounds %struct.anon, ptr %52, i32 0, i32 0
  %53 = load float, ptr %x30, align 16
  %54 = load ptr, ptr %n.addr, align 8
  %55 = getelementptr inbounds %class.b3Vector3, ptr %54, i32 0, i32 0
  %x31 = getelementptr inbounds %struct.anon, ptr %55, i32 0, i32 0
  %56 = load float, ptr %x31, align 16
  %57 = load ptr, ptr %n.addr, align 8
  %58 = getelementptr inbounds %class.b3Vector3, ptr %57, i32 0, i32 0
  %y33 = getelementptr inbounds %struct.anon, ptr %58, i32 0, i32 1
  %59 = load float, ptr %y33, align 4
  %60 = load ptr, ptr %n.addr, align 8
  %61 = getelementptr inbounds %class.b3Vector3, ptr %60, i32 0, i32 0
  %y34 = getelementptr inbounds %struct.anon, ptr %61, i32 0, i32 1
  %62 = load float, ptr %y34, align 4
  %mul35 = fmul float %59, %62
  %63 = call float @llvm.fmuladd.f32(float %53, float %56, float %mul35)
  store float %63, ptr %a29, align 4
  %64 = load float, ptr %a29, align 4
  %call37 = call noundef float @_ZSt4sqrtf(float noundef %64)
  %div38 = fdiv float 1.000000e+00, %call37
  store float %div38, ptr %k36, align 4
  %65 = load ptr, ptr %n.addr, align 8
  %66 = getelementptr inbounds %class.b3Vector3, ptr %65, i32 0, i32 0
  %y39 = getelementptr inbounds %struct.anon, ptr %66, i32 0, i32 1
  %67 = load float, ptr %y39, align 4
  %fneg40 = fneg float %67
  %68 = load float, ptr %k36, align 4
  %mul41 = fmul float %fneg40, %68
  %69 = load ptr, ptr %p.addr, align 8
  %arrayidx42 = getelementptr inbounds %class.b3Vector3, ptr %69, i64 0
  %70 = getelementptr inbounds %class.b3Vector3, ptr %arrayidx42, i32 0, i32 0
  %x43 = getelementptr inbounds %struct.anon, ptr %70, i32 0, i32 0
  store float %mul41, ptr %x43, align 16
  %71 = load ptr, ptr %n.addr, align 8
  %72 = getelementptr inbounds %class.b3Vector3, ptr %71, i32 0, i32 0
  %x44 = getelementptr inbounds %struct.anon, ptr %72, i32 0, i32 0
  %73 = load float, ptr %x44, align 16
  %74 = load float, ptr %k36, align 4
  %mul45 = fmul float %73, %74
  %75 = load ptr, ptr %p.addr, align 8
  %arrayidx46 = getelementptr inbounds %class.b3Vector3, ptr %75, i64 0
  %76 = getelementptr inbounds %class.b3Vector3, ptr %arrayidx46, i32 0, i32 0
  %y47 = getelementptr inbounds %struct.anon, ptr %76, i32 0, i32 1
  store float %mul45, ptr %y47, align 4
  %77 = load ptr, ptr %p.addr, align 8
  %arrayidx48 = getelementptr inbounds %class.b3Vector3, ptr %77, i64 0
  %78 = getelementptr inbounds %class.b3Vector3, ptr %arrayidx48, i32 0, i32 0
  %z49 = getelementptr inbounds %struct.anon, ptr %78, i32 0, i32 2
  store float 0.000000e+00, ptr %z49, align 8
  %79 = load ptr, ptr %n.addr, align 8
  %80 = getelementptr inbounds %class.b3Vector3, ptr %79, i32 0, i32 0
  %z50 = getelementptr inbounds %struct.anon, ptr %80, i32 0, i32 2
  %81 = load float, ptr %z50, align 8
  %fneg51 = fneg float %81
  %82 = load ptr, ptr %p.addr, align 8
  %arrayidx52 = getelementptr inbounds %class.b3Vector3, ptr %82, i64 0
  %83 = getelementptr inbounds %class.b3Vector3, ptr %arrayidx52, i32 0, i32 0
  %y53 = getelementptr inbounds %struct.anon, ptr %83, i32 0, i32 1
  %84 = load float, ptr %y53, align 4
  %mul54 = fmul float %fneg51, %84
  %85 = load ptr, ptr %q.addr, align 8
  %arrayidx55 = getelementptr inbounds %class.b3Vector3, ptr %85, i64 0
  %86 = getelementptr inbounds %class.b3Vector3, ptr %arrayidx55, i32 0, i32 0
  %x56 = getelementptr inbounds %struct.anon, ptr %86, i32 0, i32 0
  store float %mul54, ptr %x56, align 16
  %87 = load ptr, ptr %n.addr, align 8
  %88 = getelementptr inbounds %class.b3Vector3, ptr %87, i32 0, i32 0
  %z57 = getelementptr inbounds %struct.anon, ptr %88, i32 0, i32 2
  %89 = load float, ptr %z57, align 8
  %90 = load ptr, ptr %p.addr, align 8
  %arrayidx58 = getelementptr inbounds %class.b3Vector3, ptr %90, i64 0
  %91 = getelementptr inbounds %class.b3Vector3, ptr %arrayidx58, i32 0, i32 0
  %x59 = getelementptr inbounds %struct.anon, ptr %91, i32 0, i32 0
  %92 = load float, ptr %x59, align 16
  %mul60 = fmul float %89, %92
  %93 = load ptr, ptr %q.addr, align 8
  %arrayidx61 = getelementptr inbounds %class.b3Vector3, ptr %93, i64 0
  %94 = getelementptr inbounds %class.b3Vector3, ptr %arrayidx61, i32 0, i32 0
  %y62 = getelementptr inbounds %struct.anon, ptr %94, i32 0, i32 1
  store float %mul60, ptr %y62, align 4
  %95 = load float, ptr %a29, align 4
  %96 = load float, ptr %k36, align 4
  %mul63 = fmul float %95, %96
  %97 = load ptr, ptr %q.addr, align 8
  %arrayidx64 = getelementptr inbounds %class.b3Vector3, ptr %97, i64 0
  %98 = getelementptr inbounds %class.b3Vector3, ptr %arrayidx64, i32 0, i32 0
  %z65 = getelementptr inbounds %struct.anon, ptr %98, i32 0, i32 2
  store float %mul63, ptr %z65, align 8
  br label %if.end

if.end:                                           ; preds = %if.else, %if.then
  ret void
}