; Function Attrs: mustprogress nofree norecurse nosync nounwind willreturn memory(argmem: readwrite) uwtable
define dso_local void @_Z13b3PlaneSpace1RK9b3Vector3PS_S2_(ptr nocapture noundef nonnull readonly align 16 dereferenceable(16) %n, ptr nocapture noundef %p, ptr nocapture noundef writeonly %q) local_unnamed_addr #0 {
entry:
  %z = getelementptr inbounds i8, ptr %n, i64 8
  %0 = load float, ptr %z, align 8
  %1 = tail call noundef float @llvm.fabs.f32(float %0)
  %cmp = fcmp ogt float %1, 0x3FE6A09E60000000
  %z12 = getelementptr inbounds i8, ptr %p, i64 8
  br i1 %cmp, label %if.then, label %if.else

if.then:                                          ; preds = %entry
  %y = getelementptr inbounds i8, ptr %n, i64 4
  %2 = load float, ptr %y, align 4
  %mul4 = fmul float %0, %0
  %3 = tail call float @llvm.fmuladd.f32(float %2, float %2, float %mul4)
  %sqrt = tail call float @llvm.sqrt.f32(float %3)
  %div = fdiv float 1.000000e+00, %sqrt
  store float 0.000000e+00, ptr %p, align 16
  %4 = load float, ptr %z, align 8
  %fneg = fneg float %4
  %mul = fmul float %div, %fneg
  %y8 = getelementptr inbounds i8, ptr %p, i64 4
  store float %mul, ptr %y8, align 4
  %5 = load float, ptr %y, align 4
  %mul10 = fmul float %div, %5
  store float %mul10, ptr %z12, align 8
  %mul13 = fmul float %3, %div
  store float %mul13, ptr %q, align 16
  %6 = load float, ptr %n, align 16
  %fneg17 = fneg float %6
  %7 = load float, ptr %z12, align 8
  %mul20 = fmul float %7, %fneg17
  %y22 = getelementptr inbounds i8, ptr %q, i64 4
  store float %mul20, ptr %y22, align 4
  %8 = load float, ptr %n, align 16
  %9 = load float, ptr %y8, align 4
  %mul26 = fmul float %8, %9
  br label %if.end

if.else:                                          ; preds = %entry
  %10 = load float, ptr %n, align 16
  %y33 = getelementptr inbounds i8, ptr %n, i64 4
  %11 = load float, ptr %y33, align 4
  %mul35 = fmul float %11, %11
  %12 = tail call float @llvm.fmuladd.f32(float %10, float %10, float %mul35)
  %sqrt38 = tail call float @llvm.sqrt.f32(float %12)
  %div38 = fdiv float 1.000000e+00, %sqrt38
  %fneg40 = fneg float %11
  %mul41 = fmul float %div38, %fneg40
  store float %mul41, ptr %p, align 16
  %13 = load float, ptr %n, align 16
  %mul45 = fmul float %13, %div38
  %y47 = getelementptr inbounds i8, ptr %p, i64 4
  store float %mul45, ptr %y47, align 4
  store float 0.000000e+00, ptr %z12, align 8
  %14 = load float, ptr %z, align 8
  %fneg51 = fneg float %14
  %mul54 = fmul float %mul45, %fneg51
  store float %mul54, ptr %q, align 16
  %15 = load float, ptr %z, align 8
  %16 = load float, ptr %p, align 16
  %mul60 = fmul float %15, %16
  %y62 = getelementptr inbounds i8, ptr %q, i64 4
  store float %mul60, ptr %y62, align 4
  %mul63 = fmul float %12, %div38
  br label %if.end

if.end:                                           ; preds = %if.else, %if.then
  %mul63.sink = phi float [ %mul26, %if.then ], [ %mul63, %if.else ]
  %17 = getelementptr inbounds i8, ptr %q, i64 8
  store float %mul63.sink, ptr %17, align 8
  ret void
}